; Function Attrs: mustprogress nounwind uwtable
define hidden void @_ZN14ZRelocateQueue10deactivateEv(ptr noundef nonnull align 8 dereferenceable(120) %0) local_unnamed_addr #1 align 2 {
  %2 = getelementptr inbounds i8, ptr %0, i64 113
  store volatile i8 0, ptr %2, align 1
  %3 = getelementptr inbounds i8, ptr %0, i64 88
  %4 = load i32, ptr %3, align 8
  %5 = icmp eq i32 %4, 0
  br i1 %5, label %_ZN14ZRelocateQueue5clearEv.exit, label %_ZN18ZArrayIteratorImplIP11ZForwardingLb0EEC2EPK18GrowableArrayCHeapIS1_L8MEMFLAGS5EE.exit.i

_ZN18ZArrayIteratorImplIP11ZForwardingLb0EEC2EPK18GrowableArrayCHeapIS1_L8MEMFLAGS5EE.exit.i: ; preds = %1
  store i32 0, ptr %3, align 8
  %6 = getelementptr inbounds i8, ptr %0, i64 116
  %7 = tail call noundef i32 asm sideeffect "lock xaddl $0,($2)", "=r,0,r,~{cc},~{memory},~{dirflag},~{fpsr},~{flags}"(i32 -1, ptr nonnull %6) #14, !srcloc !6
  br label %_ZN14ZRelocateQueue5clearEv.exit

_ZN14ZRelocateQueue5clearEv.exit:                 ; preds = %1, %_ZN18ZArrayIteratorImplIP11ZForwardingLb0EEC2EPK18GrowableArrayCHeapIS1_L8MEMFLAGS5EE.exit.i
  ret void
}